target datalayout = "e-m:e-p270:32:32-p271:32:32-p272:64:64-i64:64-i128:128-f80:128-n8:16:32:64-S128"
target triple = "x86_64-pc-linux-gnu"

%struct.preference = type { ptr, ptr, ptr, i32, i32, i32, %union.anon, %union.anon.0, %union.anon.1, %union.anon.2, %struct.pref_custom_cbs, ptr, ptr }
%union.anon = type { ptr }
%union.anon.0 = type { ptr }
%union.anon.1 = type { ptr }
%union.anon.2 = type { %struct.anon }
%struct.anon = type { ptr, i8 }
%struct.pref_custom_cbs = type { ptr, ptr, ptr, ptr, ptr, ptr, ptr }

@.str = private unnamed_addr constant [5 x i8] c"Epan\00", align 1
@.str.1 = private unnamed_addr constant [13 x i8] c"epan/prefs.c\00", align 1
@.str.8 = private unnamed_addr constant [31 x i8] c"assertion \22not reached\22 failed\00", align 1
@__func__.prefs_get_string_value = private unnamed_addr constant [23 x i8] c"prefs_get_string_value\00", align 1

; Function Attrs: null_pointer_is_valid sspstrong uwtable
define ptr @prefs_get_string_value(ptr noundef %0, i32 noundef %1) #1 {
  %3 = alloca ptr, align 8
  %4 = alloca ptr, align 8
  %5 = alloca i32, align 4
  store ptr %0, ptr %4, align 8
  store i32 %1, ptr %5, align 4
  %6 = load i32, ptr %5, align 4
  switch i32 %6, label %20 [
    i32 0, label %7
    i32 1, label %11
    i32 2, label %15
  ]

7:                                                ; preds = %2
  %8 = load ptr, ptr %4, align 8
  %9 = getelementptr inbounds nuw %struct.preference, ptr %8, i32 0, i32 8
  %10 = load ptr, ptr %9, align 8
  store ptr %10, ptr %3, align 8
  br label %21

11:                                               ; preds = %2
  %12 = load ptr, ptr %4, align 8
  %13 = getelementptr inbounds nuw %struct.preference, ptr %12, i32 0, i32 7
  %14 = load ptr, ptr %13, align 8
  store ptr %14, ptr %3, align 8
  br label %21

15:                                               ; preds = %2
  %16 = load ptr, ptr %4, align 8
  %17 = getelementptr inbounds nuw %struct.preference, ptr %16, i32 0, i32 6
  %18 = load ptr, ptr %17, align 8
  %19 = load ptr, ptr %18, align 8
  store ptr %19, ptr %3, align 8
  br label %21

20:                                               ; preds = %2
  call void (ptr, i32, ptr, i64, ptr, ptr, ...) @ws_log_fatal_full(ptr noundef @.str, i32 noundef 7, ptr noundef @.str.1, i64 noundef 1545, ptr noundef @__func__.prefs_get_string_value, ptr noundef @.str.8) #18
  unreachable

21:                                               ; preds = %15, %11, %7
  %22 = load ptr, ptr %3, align 8
  ret ptr %22
}

; Function Attrs: null_pointer_is_valid sspstrong uwtable
define ptr @prefs_get_password_value(ptr noundef %0, i32 noundef %1) #1 {
  %3 = alloca ptr, align 8
  %4 = alloca i32, align 4
  store ptr %0, ptr %3, align 8
  store i32 %1, ptr %4, align 4
  %5 = load ptr, ptr %3, align 8
  %6 = load i32, ptr %4, align 4
  %7 = call ptr @prefs_get_string_value(ptr noundef %5, i32 noundef %6)
  ret ptr %7
}